; Function Attrs: mustprogress nofree norecurse nosync nounwind willreturn memory(argmem: write) uwtable
define void @_ZN6icu_7519TransliteratorEntryC2Ev(ptr nocapture noundef nonnull writeonly align 8 dereferenceable(104) %this) unnamed_addr #11 align 2 {
entry:
  %stringArg = getelementptr inbounds i8, ptr %this, i64 8
  store ptr getelementptr inbounds ({ [13 x ptr] }, ptr @_ZTVN6icu_7513UnicodeStringE, i64 0, i32 0, i64 2), ptr %stringArg, align 8
  %fUnion2.i = getelementptr inbounds i8, ptr %this, i64 16
  store i16 2, ptr %fUnion2.i, align 8
  %compoundFilter = getelementptr inbounds i8, ptr %this, i64 80
  tail call void @llvm.memset.p0.i64(ptr noundef nonnull align 8 dereferenceable(16) %compoundFilter, i8 0, i64 16, i1 false)
  store i32 8, ptr %this, align 8
  ret void
}